target datalayout = "e-m:e-p270:32:32-p271:32:32-p272:64:64-i64:64-i128:128-f80:128-n8:16:32:64-S128"
target triple = "x86_64-pc-linux-gnu"

%struct.H5S_pnt_list_t = type { [32 x i64], [32 x i64], ptr, ptr, i64, ptr }
%struct.H5S_pnt_node_t = type { ptr, [0 x i64] }
%struct.H5S_sel_iter_t = type { ptr, i32, [32 x i64], [32 x i64], i64, i64, i32, %union.anon.1 }
%union.anon.1 = type { %struct.H5S_hyper_iter_t }
%struct.H5S_hyper_iter_t = type { [32 x i64], [32 x i64], i32, i8, [32 x %struct.H5S_hyper_dim_t], [32 x i64], [32 x i64], [32 x i8], [32 x i64], ptr, [32 x ptr] }
%struct.H5S_hyper_dim_t = type { i64, i64, i64, i64 }
%struct.H5S_point_iter_t = type { ptr, ptr }

@H5S_init_g = external global i8, align 1
@H5_libterm_g = external global i8, align 1
@H5_hcoords_t_arr_free_list = internal global { i8, [3 x i8], i32, i64, ptr, i32, [4 x i8], i64, i64, ptr } { i8 0, [3 x i8] zeroinitializer, i32 0, i64 0, ptr @.str.19, i32 33, [4 x i8] zeroinitializer, i64 8, i64 8, ptr null }, align 8
@H5_H5S_pnt_list_t_reg_free_list = internal global { i8, [3 x i8], i32, i32, [4 x i8], ptr, i64, ptr } { i8 0, [3 x i8] zeroinitializer, i32 0, i32 0, [4 x i8] zeroinitializer, ptr @.str.22, i64 544, ptr null }, align 8

; Function Attrs: nounwind uwtable
define internal void @H5S__free_pnt_list(ptr noundef %0) #0 {
  %2 = alloca ptr, align 8
  %3 = alloca ptr, align 8
  %4 = alloca ptr, align 8
  store ptr %0, ptr %2, align 8, !tbaa !93
  call void @llvm.lifetime.start.p0(i64 8, ptr %3) #7
  %5 = load i8, ptr @H5S_init_g, align 1, !tbaa !8, !range !12, !noundef !13
  %6 = trunc i8 %5 to i1
  br i1 %6, label %11, label %7

7:                                                ; preds = %1
  %8 = load i8, ptr @H5_libterm_g, align 1, !tbaa !8, !range !12, !noundef !13
  %9 = trunc i8 %8 to i1
  %10 = xor i1 %9, true
  br label %11

11:                                               ; preds = %7, %1
  %12 = phi i1 [ true, %1 ], [ %10, %7 ]
  %13 = xor i1 %12, true
  %14 = xor i1 %13, true
  %15 = zext i1 %14 to i32
  %16 = sext i32 %15 to i64
  %17 = call i64 @llvm.expect.i64(i64 %16, i64 1)
  %18 = icmp ne i64 %17, 0
  br i1 %18, label %19, label %36

19:                                               ; preds = %11
  %20 = load ptr, ptr %2, align 8, !tbaa !93
  %21 = getelementptr inbounds nuw %struct.H5S_pnt_list_t, ptr %20, i32 0, i32 2
  %22 = load ptr, ptr %21, align 8, !tbaa !35
  store ptr %22, ptr %3, align 8, !tbaa !38
  br label %23

23:                                               ; preds = %26, %19
  %24 = load ptr, ptr %3, align 8, !tbaa !38
  %25 = icmp ne ptr %24, null
  br i1 %25, label %26, label %33

26:                                               ; preds = %23
  call void @llvm.lifetime.start.p0(i64 8, ptr %4) #7
  %27 = load ptr, ptr %3, align 8, !tbaa !38
  store ptr %27, ptr %4, align 8, !tbaa !38
  %28 = load ptr, ptr %3, align 8, !tbaa !38
  %29 = getelementptr inbounds nuw %struct.H5S_pnt_node_t, ptr %28, i32 0, i32 0
  %30 = load ptr, ptr %29, align 8, !tbaa !38
  store ptr %30, ptr %3, align 8, !tbaa !38
  %31 = load ptr, ptr %4, align 8, !tbaa !38
  %32 = call ptr @H5FL_arr_free(ptr noundef @H5_hcoords_t_arr_free_list, ptr noundef %31)
  store ptr %32, ptr %4, align 8, !tbaa !38
  call void @llvm.lifetime.end.p0(i64 8, ptr %4) #7
  br label %23, !llvm.loop !96

33:                                               ; preds = %23
  %34 = load ptr, ptr %2, align 8, !tbaa !93
  %35 = call ptr @H5FL_reg_free(ptr noundef @H5_H5S_pnt_list_t_reg_free_list, ptr noundef %34)
  br label %36

36:                                               ; preds = %33, %11
  call void @llvm.lifetime.end.p0(i64 8, ptr %3) #7
  ret void
}

; Function Attrs: nounwind uwtable
define internal i32 @H5S__point_iter_release(ptr noundef %0) #0 {
  %2 = alloca ptr, align 8
  store ptr %0, ptr %2, align 8, !tbaa !80
  %3 = load i8, ptr @H5S_init_g, align 1, !tbaa !8, !range !12, !noundef !13
  %4 = trunc i8 %3 to i1
  br i1 %4, label %9, label %5

5:                                                ; preds = %1
  %6 = load i8, ptr @H5_libterm_g, align 1, !tbaa !8, !range !12, !noundef !13
  %7 = trunc i8 %6 to i1
  %8 = xor i1 %7, true
  br label %9

9:                                                ; preds = %5, %1
  %10 = phi i1 [ true, %1 ], [ %8, %5 ]
  %11 = xor i1 %10, true
  %12 = xor i1 %11, true
  %13 = zext i1 %12 to i32
  %14 = sext i32 %13 to i64
  %15 = call i64 @llvm.expect.i64(i64 %14, i64 1)
  %16 = icmp ne i64 %15, 0
  br i1 %16, label %17, label %35

17:                                               ; preds = %9
  %18 = load ptr, ptr %2, align 8, !tbaa !80
  %19 = getelementptr inbounds nuw %struct.H5S_sel_iter_t, ptr %18, i32 0, i32 6
  %20 = load i32, ptr %19, align 8, !tbaa !82
  %21 = and i32 %20, 4096
  %22 = icmp ne i32 %21, 0
  br i1 %22, label %23, label %34

23:                                               ; preds = %17
  %24 = load ptr, ptr %2, align 8, !tbaa !80
  %25 = getelementptr inbounds nuw %struct.H5S_sel_iter_t, ptr %24, i32 0, i32 6
  %26 = load i32, ptr %25, align 8, !tbaa !82
  %27 = and i32 %26, 2
  %28 = icmp ne i32 %27, 0
  br i1 %28, label %34, label %29

29:                                               ; preds = %23
  %30 = load ptr, ptr %2, align 8, !tbaa !80
  %31 = getelementptr inbounds nuw %struct.H5S_sel_iter_t, ptr %30, i32 0, i32 7
  %32 = getelementptr inbounds nuw %struct.H5S_point_iter_t, ptr %31, i32 0, i32 0
  %33 = load ptr, ptr %32, align 8, !tbaa !14
  call void @H5S__free_pnt_list(ptr noundef %33)
  br label %34

34:                                               ; preds = %29, %23, %17
  br label %35

35:                                               ; preds = %34, %9
  ret i32 0
}