; Function Attrs: nounwind uwtable
define internal noundef i32 @H5S__point_iter_release(ptr noundef readonly captures(none) %0) #0 {
  %2 = load i8, ptr @H5S_init_g, align 1, !tbaa !3, !range !7, !noundef !8
  %3 = trunc nuw i8 %2 to i1
  %4 = load i8, ptr @H5_libterm_g, align 1, !range !7
  %5 = trunc nuw i8 %4 to i1
  %6 = xor i1 %5, true
  %7 = select i1 %3, i1 true, i1 %6
  br i1 %7, label %8, label %20, !prof !9

8:                                                ; preds = %1
  %9 = getelementptr inbounds nuw i8, ptr %0, i64 544
  %10 = load i32, ptr %9, align 8, !tbaa !73
  %11 = and i32 %10, 4098
  %or.cond = icmp eq i32 %11, 4096
  br i1 %or.cond, label %12, label %20

12:                                               ; preds = %8
  %13 = getelementptr inbounds nuw i8, ptr %0, i64 552
  %14 = load ptr, ptr %13, align 8, !tbaa !10
  %15 = getelementptr inbounds nuw i8, ptr %14, i64 512
  %16 = load ptr, ptr %15, align 8, !tbaa !22
  %.not6.i = icmp eq ptr %16, null
  br i1 %.not6.i, label %H5S__free_pnt_list.exit, label %.lr.ph.i

.lr.ph.i:                                         ; preds = %12, %.lr.ph.i
  %.07.i = phi ptr [ %17, %.lr.ph.i ], [ %16, %12 ]
  %17 = load ptr, ptr %.07.i, align 8, !tbaa !25
  %18 = tail call ptr @H5FL_arr_free(ptr noundef nonnull @H5_hcoords_t_arr_free_list, ptr noundef nonnull %.07.i) #15
  %.not.i = icmp eq ptr %17, null
  br i1 %.not.i, label %H5S__free_pnt_list.exit, label %.lr.ph.i, !llvm.loop !26

H5S__free_pnt_list.exit:                          ; preds = %.lr.ph.i, %12
  %19 = tail call ptr @H5FL_reg_free(ptr noundef nonnull @H5_H5S_pnt_list_t_reg_free_list, ptr noundef %14) #15
  br label %20

20:                                               ; preds = %8, %H5S__free_pnt_list.exit, %1
  ret i32 0
}